target datalayout = "e-m:e-p270:32:32-p271:32:32-p272:64:64-i64:64-f80:128-n8:16:32:64-S128"
target triple = "x86_64-pc-linux-gnu"

@.str = private unnamed_addr constant [3 x i8] c"%d\00", align 1
@.str.1 = private unnamed_addr constant [3 x i8] c"%s\00", align 1
@.str.2 = private unnamed_addr constant [3 x i8] c"NO\00", align 1
@.str.3 = private unnamed_addr constant [4 x i8] c"%d\0A\00", align 1
@.str.4 = private unnamed_addr constant [4 x i8] c"%s\0A\00", align 1

; Function Attrs: noinline nounwind uwtable
define dso_local void @main() #0 {
  %1 = alloca i32, align 4
  %2 = alloca i32, align 4
  %3 = alloca i32, align 4
  %4 = alloca i32, align 4
  %5 = alloca [501 x i32], align 16
  %6 = alloca [501 x i8], align 16
  %7 = alloca [501 x [5 x i8]], align 16
  %8 = alloca i32, align 4
  %9 = bitcast [501 x i32]* %5 to i8*
  call void @llvm.memset.p0i8.i64(i8* align 16 %9, i8 0, i64 2004, i1 false)
  %10 = bitcast [501 x i8]* %6 to i8*
  call void @llvm.memset.p0i8.i64(i8* align 16 %10, i8 0, i64 501, i1 false)
  %11 = call i32 (i8*, ...) @__isoc99_scanf(i8* getelementptr inbounds ([3 x i8], [3 x i8]* @.str, i64 0, i64 0), i32* %1)
  %12 = getelementptr inbounds [501 x i8], [501 x i8]* %6, i64 0, i64 0
  %13 = call i32 (i8*, ...) @__isoc99_scanf(i8* getelementptr inbounds ([3 x i8], [3 x i8]* @.str.1, i64 0, i64 0), i8* %12)
  %14 = getelementptr inbounds [501 x i8], [501 x i8]* %6, i64 0, i64 0
  %15 = call i64 @strlen(i8* %14) #4
  %16 = trunc i64 %15 to i32
  store i32 %16, i32* %3, align 4
  store i32 0, i32* %2, align 4
  br label %17

17:                                               ; preds = %52, %0
  %18 = load i32, i32* %2, align 4
  %19 = load i32, i32* %3, align 4
  %20 = load i32, i32* %1, align 4
  %21 = sub nsw i32 %19, %20
  %22 = add nsw i32 %21, 1
  %23 = icmp slt i32 %18, %22
  br i1 %23, label %24, label %55

24:                                               ; preds = %17
  store i32 0, i32* %4, align 4
  br label %25

25:                                               ; preds = %42, %24
  %26 = load i32, i32* %4, align 4
  %27 = load i32, i32* %1, align 4
  %28 = icmp slt i32 %26, %27
  br i1 %28, label %29, label %45

29:                                               ; preds = %25
  %30 = load i32, i32* %2, align 4
  %31 = load i32, i32* %4, align 4
  %32 = add nsw i32 %30, %31
  %33 = sext i32 %32 to i64
  %34 = getelementptr inbounds [501 x i8], [501 x i8]* %6, i64 0, i64 %33
  %35 = load i8, i8* %34, align 1
  %36 = load i32, i32* %2, align 4
  %37 = sext i32 %36 to i64
  %38 = getelementptr inbounds [501 x [5 x i8]], [501 x [5 x i8]]* %7, i64 0, i64 %37
  %39 = load i32, i32* %4, align 4
  %40 = sext i32 %39 to i64
  %41 = getelementptr inbounds [5 x i8], [5 x i8]* %38, i64 0, i64 %40
  store i8 %35, i8* %41, align 1
  br label %42

42:                                               ; preds = %29
  %43 = load i32, i32* %4, align 4
  %44 = add nsw i32 %43, 1
  store i32 %44, i32* %4, align 4
  br label %25

45:                                               ; preds = %25
  %46 = load i32, i32* %2, align 4
  %47 = sext i32 %46 to i64
  %48 = getelementptr inbounds [501 x [5 x i8]], [501 x [5 x i8]]* %7, i64 0, i64 %47
  %49 = load i32, i32* %1, align 4
  %50 = sext i32 %49 to i64
  %51 = getelementptr inbounds [5 x i8], [5 x i8]* %48, i64 0, i64 %50
  store i8 0, i8* %51, align 1
  br label %52

52:                                               ; preds = %45
  %53 = load i32, i32* %2, align 4
  %54 = add nsw i32 %53, 1
  store i32 %54, i32* %2, align 4
  br label %17

55:                                               ; preds = %17
  store i32 0, i32* %2, align 4
  br label %56

56:                                               ; preds = %107, %55
  %57 = load i32, i32* %2, align 4
  %58 = load i32, i32* %3, align 4
  %59 = load i32, i32* %1, align 4
  %60 = sub nsw i32 %58, %59
  %61 = add nsw i32 %60, 1
  %62 = icmp slt i32 %57, %61
  br i1 %62, label %63, label %110

63:                                               ; preds = %56
  %64 = load i32, i32* %2, align 4
  %65 = add nsw i32 %64, 1
  store i32 %65, i32* %4, align 4
  br label %66

66:                                               ; preds = %103, %63
  %67 = load i32, i32* %4, align 4
  %68 = load i32, i32* %3, align 4
  %69 = load i32, i32* %1, align 4
  %70 = sub nsw i32 %68, %69
  %71 = add nsw i32 %70, 1
  %72 = icmp slt i32 %67, %71
  br i1 %72, label %73, label %106

73:                                               ; preds = %66
  %74 = load i32, i32* %2, align 4
  %75 = sext i32 %74 to i64
  %76 = getelementptr inbounds [501 x [5 x i8]], [501 x [5 x i8]]* %7, i64 0, i64 %75
  %77 = getelementptr inbounds [5 x i8], [5 x i8]* %76, i64 0, i64 0
  %78 = load i32, i32* %4, align 4
  %79 = sext i32 %78 to i64
  %80 = getelementptr inbounds [501 x [5 x i8]], [501 x [5 x i8]]* %7, i64 0, i64 %79
  %81 = getelementptr inbounds [5 x i8], [5 x i8]* %80, i64 0, i64 0
  %82 = call i32 @strcmp(i8* %77, i8* %81) #4
  %83 = icmp eq i32 %82, 0
  br i1 %83, label %84, label %102

84:                                               ; preds = %73
  %85 = load i32, i32* %2, align 4
  %86 = sext i32 %85 to i64
  %87 = getelementptr inbounds [501 x [5 x i8]], [501 x [5 x i8]]* %7, i64 0, i64 %86
  %88 = getelementptr inbounds [5 x i8], [5 x i8]* %87, i64 0, i64 0
  %89 = load i8, i8* %88, align 1
  %90 = sext i8 %89 to i32
  %91 = icmp ne i32 %90, 0
  br i1 %91, label %92, label %102

92:                                               ; preds = %84
  %93 = load i32, i32* %2, align 4
  %94 = sext i32 %93 to i64
  %95 = getelementptr inbounds [501 x i32], [501 x i32]* %5, i64 0, i64 %94
  %96 = load i32, i32* %95, align 4
  %97 = add nsw i32 %96, 1
  store i32 %97, i32* %95, align 4
  %98 = load i32, i32* %4, align 4
  %99 = sext i32 %98 to i64
  %100 = getelementptr inbounds [501 x [5 x i8]], [501 x [5 x i8]]* %7, i64 0, i64 %99
  %101 = getelementptr inbounds [5 x i8], [5 x i8]* %100, i64 0, i64 0
  store i8 0, i8* %101, align 1
  br label %102

102:                                              ; preds = %92, %84, %73
  br label %103

103:                                              ; preds = %102
  %104 = load i32, i32* %4, align 4
  %105 = add nsw i32 %104, 1
  store i32 %105, i32* %4, align 4
  br label %66

106:                                              ; preds = %66
  br label %107

107:                                              ; preds = %106
  %108 = load i32, i32* %2, align 4
  %109 = add nsw i32 %108, 1
  store i32 %109, i32* %2, align 4
  br label %56

110:                                              ; preds = %56
  %111 = getelementptr inbounds [501 x i32], [501 x i32]* %5, i64 0, i64 0
  %112 = load i32, i32* %111, align 16
  store i32 %112, i32* %8, align 4
  store i32 0, i32* %2, align 4
  br label %113

113:                                              ; preds = %133, %110
  %114 = load i32, i32* %2, align 4
  %115 = load i32, i32* %3, align 4
  %116 = load i32, i32* %1, align 4
  %117 = sub nsw i32 %115, %116
  %118 = add nsw i32 %117, 1
  %119 = icmp slt i32 %114, %118
  br i1 %119, label %120, label %136

120:                                              ; preds = %113
  %121 = load i32, i32* %2, align 4
  %122 = sext i32 %121 to i64
  %123 = getelementptr inbounds [501 x i32], [501 x i32]* %5, i64 0, i64 %122
  %124 = load i32, i32* %123, align 4
  %125 = load i32, i32* %8, align 4
  %126 = icmp sgt i32 %124, %125
  br i1 %126, label %127, label %132

127:                                              ; preds = %120
  %128 = load i32, i32* %2, align 4
  %129 = sext i32 %128 to i64
  %130 = getelementptr inbounds [501 x i32], [501 x i32]* %5, i64 0, i64 %129
  %131 = load i32, i32* %130, align 4
  store i32 %131, i32* %8, align 4
  br label %132

132:                                              ; preds = %127, %120
  br label %133

133:                                              ; preds = %132
  %134 = load i32, i32* %2, align 4
  %135 = add nsw i32 %134, 1
  store i32 %135, i32* %2, align 4
  br label %113

136:                                              ; preds = %113
  %137 = load i32, i32* %8, align 4
  %138 = icmp eq i32 %137, 0
  br i1 %138, label %139, label %141

139:                                              ; preds = %136
  %140 = call i32 (i8*, ...) @printf(i8* getelementptr inbounds ([3 x i8], [3 x i8]* @.str.2, i64 0, i64 0))
  br label %170

141:                                              ; preds = %136
  %142 = load i32, i32* %8, align 4
  %143 = add nsw i32 %142, 1
  %144 = call i32 (i8*, ...) @printf(i8* getelementptr inbounds ([4 x i8], [4 x i8]* @.str.3, i64 0, i64 0), i32 %143)
  store i32 0, i32* %2, align 4
  br label %145

145:                                              ; preds = %166, %141
  %146 = load i32, i32* %2, align 4
  %147 = load i32, i32* %3, align 4
  %148 = load i32, i32* %1, align 4
  %149 = sub nsw i32 %147, %148
  %150 = add nsw i32 %149, 1
  %151 = icmp slt i32 %146, %150
  br i1 %151, label %152, label %169

152:                                              ; preds = %145
  %153 = load i32, i32* %2, align 4
  %154 = sext i32 %153 to i64
  %155 = getelementptr inbounds [501 x i32], [501 x i32]* %5, i64 0, i64 %154
  %156 = load i32, i32* %155, align 4
  %157 = load i32, i32* %8, align 4
  %158 = icmp eq i32 %156, %157
  br i1 %158, label %159, label %165

159:                                              ; preds = %152
  %160 = load i32, i32* %2, align 4
  %161 = sext i32 %160 to i64
  %162 = getelementptr inbounds [501 x [5 x i8]], [501 x [5 x i8]]* %7, i64 0, i64 %161
  %163 = getelementptr inbounds [5 x i8], [5 x i8]* %162, i64 0, i64 0
  %164 = call i32 (i8*, ...) @printf(i8* getelementptr inbounds ([4 x i8], [4 x i8]* @.str.4, i64 0, i64 0), i8* %163)
  br label %165

165:                                              ; preds = %159, %152
  br label %166

166:                                              ; preds = %165
  %167 = load i32, i32* %2, align 4
  %168 = add nsw i32 %167, 1
  store i32 %168, i32* %2, align 4
  br label %145

169:                                              ; preds = %145
  br label %170

170:                                              ; preds = %169, %139
  ret void
}